target datalayout = "e-m:e-p270:32:32-p271:32:32-p272:64:64-i64:64-i128:128-f80:128-n8:16:32:64-S128"
target triple = "x86_64-unknown-linux-gnu"

%struct.QTailQLink = type { ptr, ptr }
%struct.BlockDriverState = type { i32, i8, i8, i8, i8, i8, ptr, ptr, ptr, %struct.anon.0, i8, [4096 x i8], [4096 x i8], [4096 x i8], [16 x i8], ptr, [4096 x i8], %struct.BlockLimits, i32, i32, i32, i32, [32 x i8], %union.anon, %union.anon.1, %union.anon.2, i32, [16 x %struct.anon.3], ptr, %struct.anon.4, ptr, ptr, %struct.anon.5, ptr, ptr, i32, ptr, i64, i64, %struct.QemuMutex, %struct.anon.6, %struct.Stat64, i32, i32, i32, i32, i32, i32, %struct.QemuMutex, %struct.anon.7, %struct.CoQueue, i8, i32, i8, %struct.CoMutex, ptr, ptr }
%struct.anon.0 = type { ptr }
%struct.BlockLimits = type { i32, i64, i32, i64, i32, i32, i32, i64, i32, i64, i64, i32, i8, i32, i32, i32, i32, i32, i32, i32 }
%union.anon = type { %struct.QTailQLink }
%union.anon.1 = type { %struct.QTailQLink }
%union.anon.2 = type { %struct.QTailQLink }
%struct.anon.3 = type { ptr }
%struct.anon.4 = type { ptr }
%struct.anon.5 = type { ptr }
%struct.anon.6 = type { ptr }
%struct.Stat64 = type { i64 }
%struct.QemuMutex = type { %union.pthread_mutex_t, i8 }
%union.pthread_mutex_t = type { %struct.__pthread_mutex_s }
%struct.__pthread_mutex_s = type { i32, i32, i32, i32, i32, i16, i16, %struct.__pthread_internal_list }
%struct.__pthread_internal_list = type { ptr, ptr }
%struct.anon.7 = type { ptr }
%struct.CoQueue = type { %struct.anon.8 }
%struct.anon.8 = type { ptr, ptr }
%struct.CoMutex = type { i32, ptr, %struct.anon.9, %struct.anon.9, i32, i32, ptr }
%struct.anon.9 = type { ptr }
%struct.BDRVReplicationState = type { i32, i32, ptr, ptr, ptr, ptr, ptr, ptr, ptr, i8, i8, i32 }
%struct.BdrvChild = type { ptr, ptr, ptr, i32, ptr, i64, i64, i8, i8, %struct.anon.12, %struct.anon.13 }
%struct.anon.12 = type { ptr, ptr }
%struct.anon.13 = type { ptr, ptr }
%struct.GraphLockableMainloop = type {}

@.str.4 = private unnamed_addr constant [28 x i8] c"../qemu/block/replication.c\00", align 1
@.str.12 = private unnamed_addr constant [22 x i8] c"qemu_in_main_thread()\00", align 1
@__PRETTY_FUNCTION__.reopen_backing_file = private unnamed_addr constant [62 x i8] c"void reopen_backing_file(BlockDriverState *, _Bool, Error **)\00", align 1
@.str.25 = private unnamed_addr constant [10 x i8] c"read-only\00", align 1

; Function Attrs: nounwind sspstrong uwtable
define internal void @graph_lockable_auto_unlock_mainloop(ptr noundef %x) #0 {
entry:
  %x.addr = alloca ptr, align 8
  store ptr %x, ptr %x.addr, align 8
  call void @bdrv_graph_rdunlock_main_loop()
  ret void
}

; Function Attrs: nounwind sspstrong uwtable
define internal void @glib_autoptr_clear_GraphLockableMainloop(ptr noundef %_ptr) #0 {
entry:
  %_ptr.addr = alloca ptr, align 8
  store ptr %_ptr, ptr %_ptr.addr, align 8
  %0 = load ptr, ptr %_ptr.addr, align 8
  %tobool = icmp ne ptr %0, null
  br i1 %tobool, label %if.then, label %if.end

if.then:                                          ; preds = %entry
  %1 = load ptr, ptr %_ptr.addr, align 8
  call void @graph_lockable_auto_unlock_mainloop(ptr noundef %1)
  br label %if.end

if.end:                                           ; preds = %if.then, %entry
  ret void
}

; Function Attrs: nounwind sspstrong uwtable
define internal void @glib_autoptr_cleanup_GraphLockableMainloop(ptr noundef %_ptr) #0 {
entry:
  %_ptr.addr = alloca ptr, align 8
  store ptr %_ptr, ptr %_ptr.addr, align 8
  %0 = load ptr, ptr %_ptr.addr, align 8
  %1 = load ptr, ptr %0, align 8
  call void @glib_autoptr_clear_GraphLockableMainloop(ptr noundef %1)
  ret void
}

; Function Attrs: nounwind sspstrong uwtable
define internal ptr @graph_lockable_auto_lock_mainloop(ptr noundef %x) #0 {
entry:
  %x.addr = alloca ptr, align 8
  store ptr %x, ptr %x.addr, align 8
  call void @bdrv_graph_rdlock_main_loop()
  %0 = load ptr, ptr %x.addr, align 8
  ret ptr %0
}

; Function Attrs: nounwind sspstrong uwtable
define internal void @reopen_backing_file(ptr noundef %bs, i1 noundef zeroext %writable, ptr noundef %errp) #0 {
entry:
  %bs.addr = alloca ptr, align 8
  %writable.addr = alloca i8, align 1
  %errp.addr = alloca ptr, align 8
  %s = alloca ptr, align 8
  %hidden_disk = alloca ptr, align 8
  %secondary_disk = alloca ptr, align 8
  %reopen_queue = alloca ptr, align 8
  %graph_lockable_auto5 = alloca ptr, align 8
  %.compoundliteral = alloca %struct.GraphLockableMainloop, align 1
  %opts = alloca ptr, align 8
  %opts24 = alloca ptr, align 8
  %ctx = alloca ptr, align 8
  store ptr %bs, ptr %bs.addr, align 8
  %frombool = zext i1 %writable to i8
  store i8 %frombool, ptr %writable.addr, align 1
  store ptr %errp, ptr %errp.addr, align 8
  %0 = load ptr, ptr %bs.addr, align 8
  %opaque = getelementptr inbounds %struct.BlockDriverState, ptr %0, i32 0, i32 7
  %1 = load ptr, ptr %opaque, align 8
  store ptr %1, ptr %s, align 8
  store ptr null, ptr %reopen_queue, align 8
  br label %do.body

do.body:                                          ; preds = %entry
  %call = call zeroext i1 @qemu_in_main_thread()
  br i1 %call, label %if.then, label %if.else

if.then:                                          ; preds = %do.body
  br label %if.end

if.else:                                          ; preds = %do.body
  call void @__assert_fail(ptr noundef @.str.12, ptr noundef @.str.4, i32 noundef 367, ptr noundef @__PRETTY_FUNCTION__.reopen_backing_file) #6
  unreachable

if.end:                                           ; preds = %if.then
  br label %do.end

do.end:                                           ; preds = %if.end
  %call1 = call ptr @graph_lockable_auto_lock_mainloop(ptr noundef %.compoundliteral)
  store ptr %call1, ptr %graph_lockable_auto5, align 8
  %2 = load ptr, ptr %bs.addr, align 8
  %file = getelementptr inbounds %struct.BlockDriverState, ptr %2, i32 0, i32 31
  %3 = load ptr, ptr %file, align 8
  %bs2 = getelementptr inbounds %struct.BdrvChild, ptr %3, i32 0, i32 0
  %4 = load ptr, ptr %bs2, align 8
  %backing = getelementptr inbounds %struct.BlockDriverState, ptr %4, i32 0, i32 30
  %5 = load ptr, ptr %backing, align 8
  store ptr %5, ptr %hidden_disk, align 8
  %6 = load ptr, ptr %hidden_disk, align 8
  %bs3 = getelementptr inbounds %struct.BdrvChild, ptr %6, i32 0, i32 0
  %7 = load ptr, ptr %bs3, align 8
  %backing4 = getelementptr inbounds %struct.BlockDriverState, ptr %7, i32 0, i32 30
  %8 = load ptr, ptr %backing4, align 8
  store ptr %8, ptr %secondary_disk, align 8
  %9 = load i8, ptr %writable.addr, align 1
  %tobool = trunc i8 %9 to i1
  br i1 %tobool, label %if.then5, label %if.end12

if.then5:                                         ; preds = %do.end
  %10 = load ptr, ptr %hidden_disk, align 8
  %bs6 = getelementptr inbounds %struct.BdrvChild, ptr %10, i32 0, i32 0
  %11 = load ptr, ptr %bs6, align 8
  %call7 = call zeroext i1 @bdrv_is_read_only(ptr noundef %11)
  %12 = load ptr, ptr %s, align 8
  %orig_hidden_read_only = getelementptr inbounds %struct.BDRVReplicationState, ptr %12, i32 0, i32 9
  %frombool8 = zext i1 %call7 to i8
  store i8 %frombool8, ptr %orig_hidden_read_only, align 8
  %13 = load ptr, ptr %secondary_disk, align 8
  %bs9 = getelementptr inbounds %struct.BdrvChild, ptr %13, i32 0, i32 0
  %14 = load ptr, ptr %bs9, align 8
  %call10 = call zeroext i1 @bdrv_is_read_only(ptr noundef %14)
  %15 = load ptr, ptr %s, align 8
  %orig_secondary_read_only = getelementptr inbounds %struct.BDRVReplicationState, ptr %15, i32 0, i32 10
  %frombool11 = zext i1 %call10 to i8
  store i8 %frombool11, ptr %orig_secondary_read_only, align 1
  br label %if.end12

if.end12:                                         ; preds = %if.then5, %do.end
  %16 = load ptr, ptr %s, align 8
  %orig_hidden_read_only13 = getelementptr inbounds %struct.BDRVReplicationState, ptr %16, i32 0, i32 9
  %17 = load i8, ptr %orig_hidden_read_only13, align 8
  %tobool14 = trunc i8 %17 to i1
  br i1 %tobool14, label %if.then15, label %if.end20

if.then15:                                        ; preds = %if.end12
  %call16 = call ptr @qdict_new()
  store ptr %call16, ptr %opts, align 8
  %18 = load ptr, ptr %opts, align 8
  %19 = load i8, ptr %writable.addr, align 1
  %tobool17 = trunc i8 %19 to i1
  %lnot = xor i1 %tobool17, true
  call void @qdict_put_bool(ptr noundef %18, ptr noundef @.str.25, i1 noundef zeroext %lnot)
  %20 = load ptr, ptr %reopen_queue, align 8
  %21 = load ptr, ptr %hidden_disk, align 8
  %bs18 = getelementptr inbounds %struct.BdrvChild, ptr %21, i32 0, i32 0
  %22 = load ptr, ptr %bs18, align 8
  %23 = load ptr, ptr %opts, align 8
  %call19 = call ptr @bdrv_reopen_queue(ptr noundef %20, ptr noundef %22, ptr noundef %23, i1 noundef zeroext true)
  store ptr %call19, ptr %reopen_queue, align 8
  br label %if.end20

if.end20:                                         ; preds = %if.then15, %if.end12
  %24 = load ptr, ptr %s, align 8
  %orig_secondary_read_only21 = getelementptr inbounds %struct.BDRVReplicationState, ptr %24, i32 0, i32 10
  %25 = load i8, ptr %orig_secondary_read_only21, align 1
  %tobool22 = trunc i8 %25 to i1
  br i1 %tobool22, label %if.then23, label %if.end30

if.then23:                                        ; preds = %if.end20
  %call25 = call ptr @qdict_new()
  store ptr %call25, ptr %opts24, align 8
  %26 = load ptr, ptr %opts24, align 8
  %27 = load i8, ptr %writable.addr, align 1
  %tobool26 = trunc i8 %27 to i1
  %lnot27 = xor i1 %tobool26, true
  call void @qdict_put_bool(ptr noundef %26, ptr noundef @.str.25, i1 noundef zeroext %lnot27)
  %28 = load ptr, ptr %reopen_queue, align 8
  %29 = load ptr, ptr %secondary_disk, align 8
  %bs28 = getelementptr inbounds %struct.BdrvChild, ptr %29, i32 0, i32 0
  %30 = load ptr, ptr %bs28, align 8
  %31 = load ptr, ptr %opts24, align 8
  %call29 = call ptr @bdrv_reopen_queue(ptr noundef %28, ptr noundef %30, ptr noundef %31, i1 noundef zeroext true)
  store ptr %call29, ptr %reopen_queue, align 8
  br label %if.end30

if.end30:                                         ; preds = %if.then23, %if.end20
  %32 = load ptr, ptr %reopen_queue, align 8
  %tobool31 = icmp ne ptr %32, null
  br i1 %tobool31, label %if.then32, label %if.end42

if.then32:                                        ; preds = %if.end30
  %33 = load ptr, ptr %bs.addr, align 8
  %call33 = call ptr @bdrv_get_aio_context(ptr noundef %33)
  store ptr %call33, ptr %ctx, align 8
  %34 = load ptr, ptr %ctx, align 8
  %call34 = call ptr @qemu_get_aio_context()
  %cmp = icmp ne ptr %34, %call34
  br i1 %cmp, label %if.then35, label %if.end36

if.then35:                                        ; preds = %if.then32
  %35 = load ptr, ptr %ctx, align 8
  call void @aio_context_release(ptr noundef %35)
  br label %if.end36

if.end36:                                         ; preds = %if.then35, %if.then32
  %36 = load ptr, ptr %reopen_queue, align 8
  %37 = load ptr, ptr %errp.addr, align 8
  %call37 = call i32 @bdrv_reopen_multiple(ptr noundef %36, ptr noundef %37)
  %38 = load ptr, ptr %ctx, align 8
  %call38 = call ptr @qemu_get_aio_context()
  %cmp39 = icmp ne ptr %38, %call38
  br i1 %cmp39, label %if.then40, label %if.end41

if.then40:                                        ; preds = %if.end36
  %39 = load ptr, ptr %ctx, align 8
  call void @aio_context_acquire(ptr noundef %39)
  br label %if.end41

if.end41:                                         ; preds = %if.then40, %if.end36
  br label %if.end42

if.end42:                                         ; preds = %if.end41, %if.end30
  call void @glib_autoptr_cleanup_GraphLockableMainloop(ptr noundef %graph_lockable_auto5)
  ret void
}