; Function Attrs: nounwind sspstrong uwtable
define internal fastcc void @reopen_backing_file(ptr noundef %bs, i1 noundef zeroext %writable, ptr noundef %errp) unnamed_addr #0 {
entry:
  %opaque = getelementptr inbounds nuw i8, ptr %bs, i64 24
  %0 = load ptr, ptr %opaque, align 8
  %call = tail call zeroext i1 @qemu_in_main_thread() #8
  br i1 %call, label %do.end, label %if.else

if.else:                                          ; preds = %entry
  tail call void @__assert_fail(ptr noundef nonnull @.str.12, ptr noundef nonnull @.str.4, i32 noundef 367, ptr noundef nonnull @__PRETTY_FUNCTION__.reopen_backing_file) #10
  unreachable

do.end:                                           ; preds = %entry
  tail call void @bdrv_graph_rdlock_main_loop() #8
  %file = getelementptr inbounds nuw i8, ptr %bs, i64 16840
  %1 = load ptr, ptr %file, align 8
  %2 = load ptr, ptr %1, align 8
  %backing = getelementptr inbounds nuw i8, ptr %2, i64 16832
  %3 = load ptr, ptr %backing, align 8
  %4 = load ptr, ptr %3, align 8
  %backing4 = getelementptr inbounds nuw i8, ptr %4, i64 16832
  %5 = load ptr, ptr %backing4, align 8
  br i1 %writable, label %if.then5, label %if.end12

if.then5:                                         ; preds = %do.end
  %call7 = tail call zeroext i1 @bdrv_is_read_only(ptr noundef nonnull %4) #8
  %orig_hidden_read_only = getelementptr inbounds nuw i8, ptr %0, i64 64
  %frombool8 = zext i1 %call7 to i8
  store i8 %frombool8, ptr %orig_hidden_read_only, align 8
  %6 = load ptr, ptr %5, align 8
  %call10 = tail call zeroext i1 @bdrv_is_read_only(ptr noundef %6) #8
  %orig_secondary_read_only = getelementptr inbounds nuw i8, ptr %0, i64 65
  %frombool11 = zext i1 %call10 to i8
  store i8 %frombool11, ptr %orig_secondary_read_only, align 1
  br label %if.end12

if.end12:                                         ; preds = %if.then5, %do.end
  %orig_hidden_read_only13 = getelementptr inbounds nuw i8, ptr %0, i64 64
  %7 = load i8, ptr %orig_hidden_read_only13, align 8
  %tobool14 = trunc i8 %7 to i1
  br i1 %tobool14, label %if.then15, label %if.end20

if.then15:                                        ; preds = %if.end12
  %call16 = tail call ptr @qdict_new() #8
  %lnot = xor i1 %writable, true
  tail call void @qdict_put_bool(ptr noundef %call16, ptr noundef nonnull @.str.25, i1 noundef zeroext %lnot) #8
  %8 = load ptr, ptr %3, align 8
  %call19 = tail call ptr @bdrv_reopen_queue(ptr noundef null, ptr noundef %8, ptr noundef %call16, i1 noundef zeroext true) #8
  br label %if.end20

if.end20:                                         ; preds = %if.then15, %if.end12
  %reopen_queue.0 = phi ptr [ %call19, %if.then15 ], [ null, %if.end12 ]
  %orig_secondary_read_only21 = getelementptr inbounds nuw i8, ptr %0, i64 65
  %9 = load i8, ptr %orig_secondary_read_only21, align 1
  %tobool22 = trunc i8 %9 to i1
  br i1 %tobool22, label %if.then23, label %if.end30

if.then23:                                        ; preds = %if.end20
  %call25 = tail call ptr @qdict_new() #8
  %lnot27 = xor i1 %writable, true
  tail call void @qdict_put_bool(ptr noundef %call25, ptr noundef nonnull @.str.25, i1 noundef zeroext %lnot27) #8
  %10 = load ptr, ptr %5, align 8
  %call29 = tail call ptr @bdrv_reopen_queue(ptr noundef %reopen_queue.0, ptr noundef %10, ptr noundef %call25, i1 noundef zeroext true) #8
  br label %if.end30

if.end30:                                         ; preds = %if.then23, %if.end20
  %reopen_queue.1 = phi ptr [ %call29, %if.then23 ], [ %reopen_queue.0, %if.end20 ]
  %tobool31.not = icmp eq ptr %reopen_queue.1, null
  br i1 %tobool31.not, label %glib_autoptr_cleanup_GraphLockableMainloop.exit, label %if.then32

if.then32:                                        ; preds = %if.end30
  %call33 = tail call ptr @bdrv_get_aio_context(ptr noundef nonnull %bs) #8
  %call34 = tail call ptr @qemu_get_aio_context() #8
  %cmp.not = icmp eq ptr %call33, %call34
  br i1 %cmp.not, label %if.end36, label %if.then35

if.then35:                                        ; preds = %if.then32
  tail call void @aio_context_release(ptr noundef %call33) #8
  br label %if.end36

if.end36:                                         ; preds = %if.then35, %if.then32
  %call37 = tail call i32 @bdrv_reopen_multiple(ptr noundef nonnull %reopen_queue.1, ptr noundef %errp) #8
  %call38 = tail call ptr @qemu_get_aio_context() #8
  %cmp39.not = icmp eq ptr %call33, %call38
  br i1 %cmp39.not, label %glib_autoptr_cleanup_GraphLockableMainloop.exit, label %if.then40

if.then40:                                        ; preds = %if.end36
  tail call void @aio_context_acquire(ptr noundef %call33) #8
  br label %glib_autoptr_cleanup_GraphLockableMainloop.exit

glib_autoptr_cleanup_GraphLockableMainloop.exit:  ; preds = %if.end36, %if.then40, %if.end30
  tail call void @bdrv_graph_rdunlock_main_loop() #8
  ret void
}